target datalayout = "e-m:e-p270:32:32-p271:32:32-p272:64:64-i64:64-i128:128-f80:128-n8:16:32:64-S128"
target triple = "x86_64-pc-linux-gnu"

%struct.alts_iovec_record_protocol = type { ptr, ptr, i64, i8, i8 }
%struct.iovec = type { ptr, i64 }

@.str = private unnamed_addr constant [40 x i8] c"Input iovec_record_protocol is nullptr.\00", align 1
@.str.2 = private unnamed_addr constant [52 x i8] c"Protect operations are not allowed for this object.\00", align 1
@.str.6 = private unnamed_addr constant [62 x i8] c"Privacy-integrity operations are not allowed for this object.\00", align 1
@.str.7 = private unnamed_addr constant [28 x i8] c"Protected frame is nullptr.\00", align 1
@.str.8 = private unnamed_addr constant [35 x i8] c"Protected frame size is incorrect.\00", align 1
@.str.9 = private unnamed_addr constant [57 x i8] c"Bytes written expects to be data length plus tag length.\00", align 1
@.str.11 = private unnamed_addr constant [19 x i8] c"Header is nullptr.\00", align 1

; Function Attrs: mustprogress nounwind uwtable
define internal void @_ZL11store_32_lejPh(i32 noundef %0, ptr noundef %1) #0 {
  %3 = alloca i32, align 4
  %4 = alloca ptr, align 8
  store i32 %0, ptr %3, align 4, !tbaa !39
  store ptr %1, ptr %4, align 8, !tbaa !32
  %5 = load i32, ptr %3, align 4, !tbaa !39
  %6 = lshr i32 %5, 24
  %7 = trunc i32 %6 to i8
  %8 = zext i8 %7 to i32
  %9 = and i32 %8, 255
  %10 = trunc i32 %9 to i8
  %11 = load ptr, ptr %4, align 8, !tbaa !32
  %12 = getelementptr inbounds i8, ptr %11, i64 3
  store i8 %10, ptr %12, align 1, !tbaa !44
  %13 = load i32, ptr %3, align 4, !tbaa !39
  %14 = lshr i32 %13, 16
  %15 = trunc i32 %14 to i8
  %16 = zext i8 %15 to i32
  %17 = and i32 %16, 255
  %18 = trunc i32 %17 to i8
  %19 = load ptr, ptr %4, align 8, !tbaa !32
  %20 = getelementptr inbounds i8, ptr %19, i64 2
  store i8 %18, ptr %20, align 1, !tbaa !44
  %21 = load i32, ptr %3, align 4, !tbaa !39
  %22 = lshr i32 %21, 8
  %23 = trunc i32 %22 to i8
  %24 = zext i8 %23 to i32
  %25 = and i32 %24, 255
  %26 = trunc i32 %25 to i8
  %27 = load ptr, ptr %4, align 8, !tbaa !32
  %28 = getelementptr inbounds i8, ptr %27, i64 1
  store i8 %26, ptr %28, align 1, !tbaa !44
  %29 = load i32, ptr %3, align 4, !tbaa !39
  %30 = trunc i32 %29 to i8
  %31 = zext i8 %30 to i32
  %32 = and i32 %31, 255
  %33 = trunc i32 %32 to i8
  %34 = load ptr, ptr %4, align 8, !tbaa !32
  %35 = getelementptr inbounds i8, ptr %34, i64 0
  store i8 %33, ptr %35, align 1, !tbaa !44
  ret void
}

; Function Attrs: mustprogress uwtable
define internal noundef i32 @_ZL18write_frame_headermPhPPc(i64 noundef %0, ptr noundef %1, ptr noundef %2) #2 {
  %4 = alloca i32, align 4
  %5 = alloca i64, align 8
  %6 = alloca ptr, align 8
  %7 = alloca ptr, align 8
  %8 = alloca i64, align 8
  store i64 %0, ptr %5, align 8, !tbaa !14
  store ptr %1, ptr %6, align 8, !tbaa !32
  store ptr %2, ptr %7, align 8, !tbaa !17
  %9 = load ptr, ptr %6, align 8, !tbaa !32
  %10 = icmp eq ptr %9, null
  br i1 %10, label %11, label %13

11:                                               ; preds = %3
  %12 = load ptr, ptr %7, align 8, !tbaa !17
  call void @_ZL20maybe_copy_error_msgPKcPPc(ptr noundef @.str.11, ptr noundef %12)
  store i32 9, ptr %4, align 4
  br label %21

13:                                               ; preds = %3
  call void @llvm.lifetime.start.p0(i64 8, ptr %8) #8
  %14 = load i64, ptr %5, align 8, !tbaa !14
  %15 = add i64 4, %14
  store i64 %15, ptr %8, align 8, !tbaa !14
  %16 = load i64, ptr %8, align 8, !tbaa !14
  %17 = trunc i64 %16 to i32
  %18 = load ptr, ptr %6, align 8, !tbaa !32
  call void @_ZL11store_32_lejPh(i32 noundef %17, ptr noundef %18)
  %19 = load ptr, ptr %6, align 8, !tbaa !32
  %20 = getelementptr inbounds nuw i8, ptr %19, i64 4
  call void @_ZL11store_32_lejPh(i32 noundef 6, ptr noundef %20)
  store i32 0, ptr %4, align 4
  call void @llvm.lifetime.end.p0(i64 8, ptr %8) #8
  br label %21

21:                                               ; preds = %13, %11
  %22 = load i32, ptr %4, align 4
  ret i32 %22
}

; Function Attrs: mustprogress nounwind uwtable
define noundef i64 @_Z44alts_iovec_record_protocol_get_header_lengthv() #0 {
  ret i64 8
}

; Function Attrs: mustprogress nounwind uwtable
define internal noundef i64 @_ZL16get_total_lengthPK5iovecm(ptr noundef %0, i64 noundef %1) #0 {
  %3 = alloca ptr, align 8
  %4 = alloca i64, align 8
  %5 = alloca i64, align 8
  %6 = alloca i64, align 8
  store ptr %0, ptr %3, align 8, !tbaa !15
  store i64 %1, ptr %4, align 8, !tbaa !14
  call void @llvm.lifetime.start.p0(i64 8, ptr %5) #8
  store i64 0, ptr %5, align 8, !tbaa !14
  call void @llvm.lifetime.start.p0(i64 8, ptr %6) #8
  store i64 0, ptr %6, align 8, !tbaa !14
  br label %7

7:                                                ; preds = %20, %2
  %8 = load i64, ptr %6, align 8, !tbaa !14
  %9 = load i64, ptr %4, align 8, !tbaa !14
  %10 = icmp ult i64 %8, %9
  br i1 %10, label %12, label %11

11:                                               ; preds = %7
  call void @llvm.lifetime.end.p0(i64 8, ptr %6) #8
  br label %23

12:                                               ; preds = %7
  %13 = load ptr, ptr %3, align 8, !tbaa !15
  %14 = load i64, ptr %6, align 8, !tbaa !14
  %15 = getelementptr inbounds nuw %struct.iovec, ptr %13, i64 %14
  %16 = getelementptr inbounds nuw %struct.iovec, ptr %15, i32 0, i32 1
  %17 = load i64, ptr %16, align 8, !tbaa !34
  %18 = load i64, ptr %5, align 8, !tbaa !14
  %19 = add i64 %18, %17
  store i64 %19, ptr %5, align 8, !tbaa !14
  br label %20

20:                                               ; preds = %12
  %21 = load i64, ptr %6, align 8, !tbaa !14
  %22 = add i64 %21, 1
  store i64 %22, ptr %6, align 8, !tbaa !14
  br label %7, !llvm.loop !35

23:                                               ; preds = %11
  %24 = load i64, ptr %5, align 8, !tbaa !14
  call void @llvm.lifetime.end.p0(i64 8, ptr %5) #8
  ret i64 %24
}

; Function Attrs: mustprogress uwtable
define noundef i32 @_Z52alts_iovec_record_protocol_privacy_integrity_protectP26alts_iovec_record_protocolPK5iovecmS1_PPc(ptr noundef %0, ptr noundef %1, i64 noundef %2, ptr %3, i64 %4, ptr noundef %5) #2 {
  %7 = alloca i32, align 4
  %8 = alloca %struct.iovec, align 8
  %9 = alloca ptr, align 8
  %10 = alloca ptr, align 8
  %11 = alloca i64, align 8
  %12 = alloca ptr, align 8
  %13 = alloca i64, align 8
  %14 = alloca i32, align 4
  %15 = alloca i32, align 4
  %16 = alloca ptr, align 8
  %17 = alloca %struct.iovec, align 8
  %18 = alloca i64, align 8
  %19 = alloca %struct.iovec, align 8
  %20 = getelementptr inbounds nuw { ptr, i64 }, ptr %8, i32 0, i32 0
  store ptr %3, ptr %20, align 8
  %21 = getelementptr inbounds nuw { ptr, i64 }, ptr %8, i32 0, i32 1
  store i64 %4, ptr %21, align 8
  store ptr %0, ptr %9, align 8, !tbaa !3
  store ptr %1, ptr %10, align 8, !tbaa !15
  store i64 %2, ptr %11, align 8, !tbaa !14
  store ptr %5, ptr %12, align 8, !tbaa !17
  %22 = load ptr, ptr %9, align 8, !tbaa !3
  %23 = icmp eq ptr %22, null
  br i1 %23, label %24, label %26

24:                                               ; preds = %6
  %25 = load ptr, ptr %12, align 8, !tbaa !17
  call void @_ZL20maybe_copy_error_msgPKcPPc(ptr noundef @.str, ptr noundef %25)
  store i32 3, ptr %7, align 4
  br label %127

26:                                               ; preds = %6
  %27 = load ptr, ptr %9, align 8, !tbaa !3
  %28 = getelementptr inbounds nuw %struct.alts_iovec_record_protocol, ptr %27, i32 0, i32 3
  %29 = load i8, ptr %28, align 8, !tbaa !20, !range !21, !noundef !22
  %30 = trunc i8 %29 to i1
  br i1 %30, label %31, label %33

31:                                               ; preds = %26
  %32 = load ptr, ptr %12, align 8, !tbaa !17
  call void @_ZL20maybe_copy_error_msgPKcPPc(ptr noundef @.str.6, ptr noundef %32)
  store i32 9, ptr %7, align 4
  br label %127

33:                                               ; preds = %26
  %34 = load ptr, ptr %9, align 8, !tbaa !3
  %35 = getelementptr inbounds nuw %struct.alts_iovec_record_protocol, ptr %34, i32 0, i32 4
  %36 = load i8, ptr %35, align 1, !tbaa !23, !range !21, !noundef !22
  %37 = trunc i8 %36 to i1
  br i1 %37, label %40, label %38

38:                                               ; preds = %33
  %39 = load ptr, ptr %12, align 8, !tbaa !17
  call void @_ZL20maybe_copy_error_msgPKcPPc(ptr noundef @.str.2, ptr noundef %39)
  store i32 9, ptr %7, align 4
  br label %127

40:                                               ; preds = %33
  call void @llvm.lifetime.start.p0(i64 8, ptr %13) #8
  %41 = load ptr, ptr %10, align 8, !tbaa !15
  %42 = load i64, ptr %11, align 8, !tbaa !14
  %43 = call noundef i64 @_ZL16get_total_lengthPK5iovecm(ptr noundef %41, i64 noundef %42)
  store i64 %43, ptr %13, align 8, !tbaa !14
  %44 = getelementptr inbounds nuw %struct.iovec, ptr %8, i32 0, i32 0
  %45 = load ptr, ptr %44, align 8, !tbaa !28
  %46 = icmp eq ptr %45, null
  br i1 %46, label %47, label %49

47:                                               ; preds = %40
  %48 = load ptr, ptr %12, align 8, !tbaa !17
  call void @_ZL20maybe_copy_error_msgPKcPPc(ptr noundef @.str.7, ptr noundef %48)
  store i32 3, ptr %7, align 4
  store i32 1, ptr %14, align 4
  br label %126

49:                                               ; preds = %40
  %50 = getelementptr inbounds nuw %struct.iovec, ptr %8, i32 0, i32 1
  %51 = load i64, ptr %50, align 8, !tbaa !34
  %52 = call noundef i64 @_Z44alts_iovec_record_protocol_get_header_lengthv()
  %53 = load i64, ptr %13, align 8, !tbaa !14
  %54 = add i64 %52, %53
  %55 = load ptr, ptr %9, align 8, !tbaa !3
  %56 = getelementptr inbounds nuw %struct.alts_iovec_record_protocol, ptr %55, i32 0, i32 2
  %57 = load i64, ptr %56, align 8, !tbaa !8
  %58 = add i64 %54, %57
  %59 = icmp ne i64 %51, %58
  br i1 %59, label %60, label %62

60:                                               ; preds = %49
  %61 = load ptr, ptr %12, align 8, !tbaa !17
  call void @_ZL20maybe_copy_error_msgPKcPPc(ptr noundef @.str.8, ptr noundef %61)
  store i32 3, ptr %7, align 4
  store i32 1, ptr %14, align 4
  br label %126

62:                                               ; preds = %49
  call void @llvm.lifetime.start.p0(i64 4, ptr %15) #8
  %63 = load i64, ptr %13, align 8, !tbaa !14
  %64 = load ptr, ptr %9, align 8, !tbaa !3
  %65 = getelementptr inbounds nuw %struct.alts_iovec_record_protocol, ptr %64, i32 0, i32 2
  %66 = load i64, ptr %65, align 8, !tbaa !8
  %67 = add i64 %63, %66
  %68 = getelementptr inbounds nuw %struct.iovec, ptr %8, i32 0, i32 0
  %69 = load ptr, ptr %68, align 8, !tbaa !28
  %70 = load ptr, ptr %12, align 8, !tbaa !17
  %71 = call noundef i32 @_ZL18write_frame_headermPhPPc(i64 noundef %67, ptr noundef %69, ptr noundef %70)
  store i32 %71, ptr %15, align 4, !tbaa !26
  %72 = load i32, ptr %15, align 4, !tbaa !26
  %73 = icmp ne i32 %72, 0
  br i1 %73, label %74, label %76

74:                                               ; preds = %62
  %75 = load i32, ptr %15, align 4, !tbaa !26
  store i32 %75, ptr %7, align 4
  store i32 1, ptr %14, align 4
  br label %125

76:                                               ; preds = %62
  call void @llvm.lifetime.start.p0(i64 8, ptr %16) #8
  %77 = getelementptr inbounds nuw %struct.iovec, ptr %8, i32 0, i32 0
  %78 = load ptr, ptr %77, align 8, !tbaa !28
  %79 = call noundef i64 @_Z44alts_iovec_record_protocol_get_header_lengthv()
  %80 = getelementptr inbounds nuw i8, ptr %78, i64 %79
  store ptr %80, ptr %16, align 8, !tbaa !32
  call void @llvm.lifetime.start.p0(i64 16, ptr %17) #8
  %81 = getelementptr inbounds nuw %struct.iovec, ptr %17, i32 0, i32 0
  %82 = load ptr, ptr %16, align 8, !tbaa !32
  store ptr %82, ptr %81, align 8, !tbaa !28
  %83 = getelementptr inbounds nuw %struct.iovec, ptr %17, i32 0, i32 1
  %84 = load i64, ptr %13, align 8, !tbaa !14
  %85 = load ptr, ptr %9, align 8, !tbaa !3
  %86 = getelementptr inbounds nuw %struct.alts_iovec_record_protocol, ptr %85, i32 0, i32 2
  %87 = load i64, ptr %86, align 8, !tbaa !8
  %88 = add i64 %84, %87
  store i64 %88, ptr %83, align 8, !tbaa !34
  call void @llvm.lifetime.start.p0(i64 8, ptr %18) #8
  store i64 0, ptr %18, align 8, !tbaa !14
  %89 = load ptr, ptr %9, align 8, !tbaa !3
  %90 = getelementptr inbounds nuw %struct.alts_iovec_record_protocol, ptr %89, i32 0, i32 1
  %91 = load ptr, ptr %90, align 8, !tbaa !30
  %92 = load ptr, ptr %9, align 8, !tbaa !3
  %93 = getelementptr inbounds nuw %struct.alts_iovec_record_protocol, ptr %92, i32 0, i32 0
  %94 = load ptr, ptr %93, align 8, !tbaa !31
  %95 = call noundef ptr @_Z24alts_counter_get_counterP12alts_counter(ptr noundef %94)
  %96 = load ptr, ptr %9, align 8, !tbaa !3
  %97 = getelementptr inbounds nuw %struct.alts_iovec_record_protocol, ptr %96, i32 0, i32 0
  %98 = load ptr, ptr %97, align 8, !tbaa !31
  %99 = call noundef i64 @_Z21alts_counter_get_sizeP12alts_counter(ptr noundef %98)
  %100 = load ptr, ptr %10, align 8, !tbaa !15
  %101 = load i64, ptr %11, align 8, !tbaa !14
  call void @llvm.memcpy.p0.p0.i64(ptr align 8 %19, ptr align 8 %17, i64 16, i1 false), !tbaa.struct !24
  %102 = load ptr, ptr %12, align 8, !tbaa !17
  %103 = call noundef i32 @_Z31gsec_aead_crypter_encrypt_iovecP17gsec_aead_crypterPKhmPK5iovecmS5_mS3_PmPPc(ptr noundef %91, ptr noundef %95, i64 noundef %99, ptr noundef null, i64 noundef 0, ptr noundef %100, i64 noundef %101, ptr noundef byval(%struct.iovec) align 8 %19, ptr noundef %18, ptr noundef %102)
  store i32 %103, ptr %15, align 4, !tbaa !26
  %104 = load i32, ptr %15, align 4, !tbaa !26
  %105 = icmp ne i32 %104, 0
  br i1 %105, label %106, label %108

106:                                              ; preds = %76
  %107 = load i32, ptr %15, align 4, !tbaa !26
  store i32 %107, ptr %7, align 4
  store i32 1, ptr %14, align 4
  br label %124

108:                                              ; preds = %76
  %109 = load i64, ptr %18, align 8, !tbaa !14
  %110 = load i64, ptr %13, align 8, !tbaa !14
  %111 = load ptr, ptr %9, align 8, !tbaa !3
  %112 = getelementptr inbounds nuw %struct.alts_iovec_record_protocol, ptr %111, i32 0, i32 2
  %113 = load i64, ptr %112, align 8, !tbaa !8
  %114 = add i64 %110, %113
  %115 = icmp ne i64 %109, %114
  br i1 %115, label %116, label %118

116:                                              ; preds = %108
  %117 = load ptr, ptr %12, align 8, !tbaa !17
  call void @_ZL20maybe_copy_error_msgPKcPPc(ptr noundef @.str.9, ptr noundef %117)
  store i32 13, ptr %7, align 4
  store i32 1, ptr %14, align 4
  br label %124

118:                                              ; preds = %108
  %119 = load ptr, ptr %9, align 8, !tbaa !3
  %120 = getelementptr inbounds nuw %struct.alts_iovec_record_protocol, ptr %119, i32 0, i32 0
  %121 = load ptr, ptr %120, align 8, !tbaa !31
  %122 = load ptr, ptr %12, align 8, !tbaa !17
  %123 = call noundef i32 @_ZL17increment_counterP12alts_counterPPc(ptr noundef %121, ptr noundef %122)
  store i32 %123, ptr %7, align 4
  store i32 1, ptr %14, align 4
  br label %124

124:                                              ; preds = %118, %116, %106
  call void @llvm.lifetime.end.p0(i64 8, ptr %18) #8
  call void @llvm.lifetime.end.p0(i64 16, ptr %17) #8
  call void @llvm.lifetime.end.p0(i64 8, ptr %16) #8
  br label %125

125:                                              ; preds = %124, %74
  call void @llvm.lifetime.end.p0(i64 4, ptr %15) #8
  br label %126

126:                                              ; preds = %125, %60, %47
  call void @llvm.lifetime.end.p0(i64 8, ptr %13) #8
  br label %127

127:                                              ; preds = %126, %38, %31, %24
  %128 = load i32, ptr %7, align 4
  ret i32 %128
}