; Function Attrs: mustprogress uwtable
define noundef i32 @_Z52alts_iovec_record_protocol_privacy_integrity_protectP26alts_iovec_record_protocolPK5iovecmS1_PPc(ptr noundef readonly %0, ptr noundef %1, i64 noundef %2, ptr %3, i64 %4, ptr noundef %5) local_unnamed_addr #3 {
  %7 = alloca i64, align 8
  %8 = alloca %struct.iovec, align 8
  %9 = icmp eq ptr %0, null
  br i1 %9, label %10, label %13

10:                                               ; preds = %6
  %.not53 = icmp eq ptr %5, null
  br i1 %.not53, label %_ZL20maybe_copy_error_msgPKcPPc.exit, label %11

11:                                               ; preds = %10
  %12 = tail call ptr @gpr_malloc(i64 noundef 40)
  store ptr %12, ptr %5, align 8, !tbaa !12
  tail call void @llvm.memcpy.p0.p0.i64(ptr noundef nonnull align 1 dereferenceable(40) %12, ptr noundef nonnull align 1 dereferenceable(40) @.str, i64 40, i1 false)
  br label %_ZL20maybe_copy_error_msgPKcPPc.exit

13:                                               ; preds = %6
  %14 = getelementptr inbounds nuw i8, ptr %0, i64 24
  %15 = load i8, ptr %14, align 8, !tbaa !14, !range !15, !noundef !16
  %16 = trunc nuw i8 %15 to i1
  br i1 %16, label %17, label %20

17:                                               ; preds = %13
  %.not52 = icmp eq ptr %5, null
  br i1 %.not52, label %_ZL20maybe_copy_error_msgPKcPPc.exit, label %18

18:                                               ; preds = %17
  %19 = tail call ptr @gpr_malloc(i64 noundef 62)
  store ptr %19, ptr %5, align 8, !tbaa !12
  tail call void @llvm.memcpy.p0.p0.i64(ptr noundef nonnull align 1 dereferenceable(62) %19, ptr noundef nonnull align 1 dereferenceable(62) @.str.6, i64 62, i1 false)
  br label %_ZL20maybe_copy_error_msgPKcPPc.exit

20:                                               ; preds = %13
  %21 = getelementptr inbounds nuw i8, ptr %0, i64 25
  %22 = load i8, ptr %21, align 1, !tbaa !17, !range !15, !noundef !16
  %23 = trunc nuw i8 %22 to i1
  br i1 %23, label %27, label %24

24:                                               ; preds = %20
  %.not49 = icmp eq ptr %5, null
  br i1 %.not49, label %_ZL20maybe_copy_error_msgPKcPPc.exit, label %25

25:                                               ; preds = %24
  %26 = tail call ptr @gpr_malloc(i64 noundef 52)
  store ptr %26, ptr %5, align 8, !tbaa !12
  tail call void @llvm.memcpy.p0.p0.i64(ptr noundef nonnull align 1 dereferenceable(52) %26, ptr noundef nonnull align 1 dereferenceable(52) @.str.2, i64 52, i1 false)
  br label %_ZL20maybe_copy_error_msgPKcPPc.exit

27:                                               ; preds = %20
  %.not.i = icmp eq i64 %2, 0
  br i1 %.not.i, label %_ZL16get_total_lengthPK5iovecm.exit, label %.lr.ph.i

.lr.ph.i:                                         ; preds = %27, %.lr.ph.i
  %.08.i = phi i64 [ %31, %.lr.ph.i ], [ 0, %27 ]
  %.067.i = phi i64 [ %30, %.lr.ph.i ], [ 0, %27 ]
  %28 = getelementptr inbounds nuw %struct.iovec, ptr %1, i64 %.08.i, i32 1
  %29 = load i64, ptr %28, align 8, !tbaa !20
  %30 = add i64 %29, %.067.i
  %31 = add nuw i64 %.08.i, 1
  %exitcond.not.i = icmp eq i64 %31, %2
  br i1 %exitcond.not.i, label %_ZL16get_total_lengthPK5iovecm.exit, label %.lr.ph.i, !llvm.loop !22

_ZL16get_total_lengthPK5iovecm.exit:              ; preds = %.lr.ph.i, %27
  %.06.lcssa.i = phi i64 [ 0, %27 ], [ %30, %.lr.ph.i ]
  %32 = icmp eq ptr %3, null
  br i1 %32, label %33, label %36

33:                                               ; preds = %_ZL16get_total_lengthPK5iovecm.exit
  %.not51 = icmp eq ptr %5, null
  br i1 %.not51, label %_ZL20maybe_copy_error_msgPKcPPc.exit, label %34

34:                                               ; preds = %33
  %35 = tail call ptr @gpr_malloc(i64 noundef 28)
  store ptr %35, ptr %5, align 8, !tbaa !12
  tail call void @llvm.memcpy.p0.p0.i64(ptr noundef nonnull align 1 dereferenceable(28) %35, ptr noundef nonnull align 1 dereferenceable(28) @.str.7, i64 28, i1 false)
  br label %_ZL20maybe_copy_error_msgPKcPPc.exit

36:                                               ; preds = %_ZL16get_total_lengthPK5iovecm.exit
  %37 = add i64 %.06.lcssa.i, 8
  %38 = getelementptr inbounds nuw i8, ptr %0, i64 16
  %39 = load i64, ptr %38, align 8, !tbaa !3
  %40 = add i64 %37, %39
  %.not = icmp eq i64 %4, %40
  br i1 %.not, label %44, label %41

41:                                               ; preds = %36
  %.not50 = icmp eq ptr %5, null
  br i1 %.not50, label %_ZL20maybe_copy_error_msgPKcPPc.exit, label %42

42:                                               ; preds = %41
  %43 = tail call ptr @gpr_malloc(i64 noundef 35)
  store ptr %43, ptr %5, align 8, !tbaa !12
  tail call void @llvm.memcpy.p0.p0.i64(ptr noundef nonnull align 1 dereferenceable(35) %43, ptr noundef nonnull align 1 dereferenceable(35) @.str.8, i64 35, i1 false)
  br label %_ZL20maybe_copy_error_msgPKcPPc.exit

44:                                               ; preds = %36
  %45 = add i64 %39, %.06.lcssa.i
  %46 = trunc i64 %45 to i32
  %47 = add i32 %46, 4
  %48 = lshr i32 %47, 24
  %49 = trunc nuw i32 %48 to i8
  %50 = getelementptr inbounds nuw i8, ptr %3, i64 3
  store i8 %49, ptr %50, align 1, !tbaa !24
  %51 = lshr i32 %47, 16
  %52 = trunc i32 %51 to i8
  %53 = getelementptr inbounds nuw i8, ptr %3, i64 2
  store i8 %52, ptr %53, align 1, !tbaa !24
  %54 = lshr i32 %47, 8
  %55 = trunc i32 %54 to i8
  %56 = getelementptr inbounds nuw i8, ptr %3, i64 1
  store i8 %55, ptr %56, align 1, !tbaa !24
  %57 = trunc i32 %47 to i8
  store i8 %57, ptr %3, align 1, !tbaa !24
  %58 = getelementptr inbounds nuw i8, ptr %3, i64 4
  %59 = getelementptr inbounds nuw i8, ptr %3, i64 7
  store i8 0, ptr %59, align 1, !tbaa !24
  %60 = getelementptr inbounds nuw i8, ptr %3, i64 6
  store i8 0, ptr %60, align 1, !tbaa !24
  %61 = getelementptr inbounds nuw i8, ptr %3, i64 5
  store i8 0, ptr %61, align 1, !tbaa !24
  store i8 6, ptr %58, align 1, !tbaa !24
  %62 = getelementptr inbounds nuw i8, ptr %3, i64 8
  %63 = load i64, ptr %38, align 8, !tbaa !3
  %64 = add i64 %63, %.06.lcssa.i
  call void @llvm.lifetime.start.p0(i64 8, ptr nonnull %7) #11
  store i64 0, ptr %7, align 8, !tbaa !19
  %65 = getelementptr inbounds nuw i8, ptr %0, i64 8
  %66 = load ptr, ptr %65, align 8, !tbaa !25
  %67 = load ptr, ptr %0, align 8, !tbaa !26
  %68 = tail call noundef ptr @_Z24alts_counter_get_counterP12alts_counter(ptr noundef %67)
  %69 = load ptr, ptr %0, align 8, !tbaa !26
  %70 = tail call noundef i64 @_Z21alts_counter_get_sizeP12alts_counter(ptr noundef %69)
  store ptr %62, ptr %8, align 8, !tbaa !18
  %.sroa.4.0..sroa_idx = getelementptr inbounds nuw i8, ptr %8, i64 8
  store i64 %64, ptr %.sroa.4.0..sroa_idx, align 8, !tbaa !19
  %71 = call noundef i32 @_Z31gsec_aead_crypter_encrypt_iovecP17gsec_aead_crypterPKhmPK5iovecmS5_mS3_PmPPc(ptr noundef %66, ptr noundef %68, i64 noundef %70, ptr noundef null, i64 noundef 0, ptr noundef %1, i64 noundef %2, ptr noundef nonnull byval(%struct.iovec) align 8 %8, ptr noundef nonnull %7, ptr noundef %5)
  %.not42 = icmp eq i32 %71, 0
  br i1 %.not42, label %72, label %80

72:                                               ; preds = %44
  %73 = load i64, ptr %7, align 8, !tbaa !19
  %74 = load i64, ptr %38, align 8, !tbaa !3
  %75 = add i64 %74, %.06.lcssa.i
  %.not43 = icmp eq i64 %73, %75
  br i1 %.not43, label %77, label %76

76:                                               ; preds = %72
  call fastcc void @_ZL20maybe_copy_error_msgPKcPPc(ptr noundef nonnull @.str.9, ptr noundef %5)
  br label %80

77:                                               ; preds = %72
  %78 = load ptr, ptr %0, align 8, !tbaa !26
  %79 = call fastcc noundef i32 @_ZL17increment_counterP12alts_counterPPc(ptr noundef %78, ptr noundef %5)
  br label %80

80:                                               ; preds = %44, %77, %76
  %.3 = phi i32 [ 13, %76 ], [ %79, %77 ], [ %71, %44 ]
  call void @llvm.lifetime.end.p0(i64 8, ptr nonnull %7) #11
  br label %_ZL20maybe_copy_error_msgPKcPPc.exit

_ZL20maybe_copy_error_msgPKcPPc.exit:             ; preds = %42, %41, %34, %33, %25, %24, %18, %17, %11, %10, %80
  %.0 = phi i32 [ %.3, %80 ], [ 3, %10 ], [ 3, %11 ], [ 9, %17 ], [ 9, %18 ], [ 9, %24 ], [ 9, %25 ], [ 3, %33 ], [ 3, %34 ], [ 3, %41 ], [ 3, %42 ]
  ret i32 %.0
}